; Function Attrs: mustprogress uwtable
define noundef ptr @_ZNK11OpenImageIO6v3_1_011ColorConfig18getLookNameByIndexEi(ptr noundef nonnull readonly align 8 captures(none) dereferenceable(8) %0, i32 noundef %1) local_unnamed_addr #5 align 2 {
  %3 = load ptr, ptr %0, align 8, !tbaa !140
  %4 = load ptr, ptr %3, align 8, !tbaa !30
  %5 = icmp ne ptr %4, null
  %6 = load i32, ptr @_ZN11OpenImageIO6v3_1_0L12disable_ocioE, align 4
  %7 = icmp eq i32 %6, 0
  %or.cond.not = select i1 %5, i1 %7, i1 false
  br i1 %or.cond.not, label %8, label %10

8:                                                ; preds = %2
  %9 = tail call noundef ptr @_ZNK16OpenColorIO_v2_46Config18getLookNameByIndexEi(ptr noundef nonnull align 8 dereferenceable(8) %4, i32 noundef %1)
  br label %10

10:                                               ; preds = %2, %8
  %.0 = phi ptr [ %9, %8 ], [ null, %2 ]
  ret ptr %.0
}